; ModuleID = '58/1295.c'
source_filename = "58/1295.c"
target datalayout = "e-m:e-p270:32:32-p271:32:32-p272:64:64-i64:64-f80:128-n8:16:32:64-S128"
target triple = "x86_64-pc-linux-gnu"

@.str = private unnamed_addr constant [3 x i8] c"%d\00", align 1
@.str.1 = private unnamed_addr constant [3 x i8] c"0\0A\00", align 1
@.str.2 = private unnamed_addr constant [3 x i8] c"1\0A\00", align 1

; Function Attrs: noinline nounwind uwtable
define dso_local i32 @main() #0 {
  %1 = alloca i32, align 4
  %2 = alloca i32, align 4
  %3 = alloca i32, align 4
  %4 = alloca i32, align 4
  %5 = alloca i32, align 4
  %6 = alloca i32, align 4
  %7 = alloca i32, align 4
  %8 = alloca [90 x i8], align 16
  %9 = alloca [20 x i8], align 16
  store i32 0, i32* %1, align 4
  %10 = call i32 (i8*, ...) @__isoc99_scanf(i8* getelementptr inbounds ([3 x i8], [3 x i8]* @.str, i64 0, i64 0), i32* %2)
  %11 = getelementptr inbounds [20 x i8], [20 x i8]* %9, i64 0, i64 0
  %12 = call i32 (i8*, ...) bitcast (i32 (...)* @gets to i32 (i8*, ...)*)(i8* %11)
  store i32 0, i32* %6, align 4
  br label %13

13:                                               ; preds = %196, %0
  %14 = load i32, i32* %6, align 4
  %15 = load i32, i32* %2, align 4
  %16 = icmp slt i32 %14, %15
  br i1 %16, label %17, label %199

17:                                               ; preds = %13
  %18 = getelementptr inbounds [90 x i8], [90 x i8]* %8, i64 0, i64 0
  %19 = call i32 (i8*, ...) bitcast (i32 (...)* @gets to i32 (i8*, ...)*)(i8* %18)
  %20 = getelementptr inbounds [90 x i8], [90 x i8]* %8, i64 0, i64 0
  %21 = load i8, i8* %20, align 16
  %22 = sext i8 %21 to i32
  %23 = icmp eq i32 %22, 95
  br i1 %23, label %24, label %98

24:                                               ; preds = %17
  store i32 0, i32* %5, align 4
  store i32 1, i32* %7, align 4
  br label %25

25:                                               ; preds = %89, %24
  %26 = load i32, i32* %7, align 4
  %27 = icmp slt i32 %26, 90
  br i1 %27, label %28, label %92

28:                                               ; preds = %25
  %29 = load i32, i32* %7, align 4
  %30 = sext i32 %29 to i64
  %31 = getelementptr inbounds [90 x i8], [90 x i8]* %8, i64 0, i64 %30
  %32 = load i8, i8* %31, align 1
  %33 = sext i8 %32 to i32
  %34 = icmp sge i32 %33, 48
  br i1 %34, label %35, label %42

35:                                               ; preds = %28
  %36 = load i32, i32* %7, align 4
  %37 = sext i32 %36 to i64
  %38 = getelementptr inbounds [90 x i8], [90 x i8]* %8, i64 0, i64 %37
  %39 = load i8, i8* %38, align 1
  %40 = sext i8 %39 to i32
  %41 = icmp sle i32 %40, 57
  br i1 %41, label %77, label %42

42:                                               ; preds = %35, %28
  %43 = load i32, i32* %7, align 4
  %44 = sext i32 %43 to i64
  %45 = getelementptr inbounds [90 x i8], [90 x i8]* %8, i64 0, i64 %44
  %46 = load i8, i8* %45, align 1
  %47 = sext i8 %46 to i32
  %48 = icmp sge i32 %47, 97
  br i1 %48, label %49, label %56

49:                                               ; preds = %42
  %50 = load i32, i32* %7, align 4
  %51 = sext i32 %50 to i64
  %52 = getelementptr inbounds [90 x i8], [90 x i8]* %8, i64 0, i64 %51
  %53 = load i8, i8* %52, align 1
  %54 = sext i8 %53 to i32
  %55 = icmp sle i32 %54, 122
  br i1 %55, label %77, label %56

56:                                               ; preds = %49, %42
  %57 = load i32, i32* %7, align 4
  %58 = sext i32 %57 to i64
  %59 = getelementptr inbounds [90 x i8], [90 x i8]* %8, i64 0, i64 %58
  %60 = load i8, i8* %59, align 1
  %61 = sext i8 %60 to i32
  %62 = icmp sge i32 %61, 65
  br i1 %62, label %63, label %70

63:                                               ; preds = %56
  %64 = load i32, i32* %7, align 4
  %65 = sext i32 %64 to i64
  %66 = getelementptr inbounds [90 x i8], [90 x i8]* %8, i64 0, i64 %65
  %67 = load i8, i8* %66, align 1
  %68 = sext i8 %67 to i32
  %69 = icmp sle i32 %68, 90
  br i1 %69, label %77, label %70

70:                                               ; preds = %63, %56
  %71 = load i32, i32* %7, align 4
  %72 = sext i32 %71 to i64
  %73 = getelementptr inbounds [90 x i8], [90 x i8]* %8, i64 0, i64 %72
  %74 = load i8, i8* %73, align 1
  %75 = sext i8 %74 to i32
  %76 = icmp eq i32 %75, 95
  br i1 %76, label %77, label %78

77:                                               ; preds = %70, %63, %49, %35
  br label %88

78:                                               ; preds = %70
  %79 = load i32, i32* %7, align 4
  %80 = sext i32 %79 to i64
  %81 = getelementptr inbounds [90 x i8], [90 x i8]* %8, i64 0, i64 %80
  %82 = load i8, i8* %81, align 1
  %83 = sext i8 %82 to i32
  %84 = icmp eq i32 %83, 0
  br i1 %84, label %85, label %86

85:                                               ; preds = %78
  br label %92

86:                                               ; preds = %78
  %87 = call i32 (i8*, ...) @printf(i8* getelementptr inbounds ([3 x i8], [3 x i8]* @.str.1, i64 0, i64 0))
  store i32 1, i32* %5, align 4
  br label %92

88:                                               ; preds = %77
  br label %89

89:                                               ; preds = %88
  %90 = load i32, i32* %7, align 4
  %91 = add nsw i32 %90, 1
  store i32 %91, i32* %7, align 4
  br label %25

92:                                               ; preds = %86, %85, %25
  %93 = load i32, i32* %5, align 4
  %94 = icmp eq i32 %93, 0
  br i1 %94, label %95, label %97

95:                                               ; preds = %92
  %96 = call i32 (i8*, ...) @printf(i8* getelementptr inbounds ([3 x i8], [3 x i8]* @.str.2, i64 0, i64 0))
  br label %97

97:                                               ; preds = %95, %92
  br label %195

98:                                               ; preds = %17
  %99 = getelementptr inbounds [90 x i8], [90 x i8]* %8, i64 0, i64 0
  %100 = load i8, i8* %99, align 16
  %101 = sext i8 %100 to i32
  %102 = icmp sge i32 %101, 97
  br i1 %102, label %103, label %108

103:                                              ; preds = %98
  %104 = getelementptr inbounds [90 x i8], [90 x i8]* %8, i64 0, i64 0
  %105 = load i8, i8* %104, align 16
  %106 = sext i8 %105 to i32
  %107 = icmp sle i32 %106, 122
  br i1 %107, label %118, label %108

108:                                              ; preds = %103, %98
  %109 = getelementptr inbounds [90 x i8], [90 x i8]* %8, i64 0, i64 0
  %110 = load i8, i8* %109, align 16
  %111 = sext i8 %110 to i32
  %112 = icmp sge i32 %111, 65
  br i1 %112, label %113, label %192

113:                                              ; preds = %108
  %114 = getelementptr inbounds [90 x i8], [90 x i8]* %8, i64 0, i64 0
  %115 = load i8, i8* %114, align 16
  %116 = sext i8 %115 to i32
  %117 = icmp sle i32 %116, 90
  br i1 %117, label %118, label %192

118:                                              ; preds = %113, %103
  store i32 0, i32* %5, align 4
  store i32 1, i32* %7, align 4
  br label %119

119:                                              ; preds = %183, %118
  %120 = load i32, i32* %7, align 4
  %121 = icmp slt i32 %120, 90
  br i1 %121, label %122, label %186

122:                                              ; preds = %119
  %123 = load i32, i32* %7, align 4
  %124 = sext i32 %123 to i64
  %125 = getelementptr inbounds [90 x i8], [90 x i8]* %8, i64 0, i64 %124
  %126 = load i8, i8* %125, align 1
  %127 = sext i8 %126 to i32
  %128 = icmp sge i32 %127, 48
  br i1 %128, label %129, label %136

129:                                              ; preds = %122
  %130 = load i32, i32* %7, align 4
  %131 = sext i32 %130 to i64
  %132 = getelementptr inbounds [90 x i8], [90 x i8]* %8, i64 0, i64 %131
  %133 = load i8, i8* %132, align 1
  %134 = sext i8 %133 to i32
  %135 = icmp sle i32 %134, 57
  br i1 %135, label %171, label %136

136:                                              ; preds = %129, %122
  %137 = load i32, i32* %7, align 4
  %138 = sext i32 %137 to i64
  %139 = getelementptr inbounds [90 x i8], [90 x i8]* %8, i64 0, i64 %138
  %140 = load i8, i8* %139, align 1
  %141 = sext i8 %140 to i32
  %142 = icmp sge i32 %141, 97
  br i1 %142, label %143, label %150

143:                                              ; preds = %136
  %144 = load i32, i32* %7, align 4
  %145 = sext i32 %144 to i64
  %146 = getelementptr inbounds [90 x i8], [90 x i8]* %8, i64 0, i64 %145
  %147 = load i8, i8* %146, align 1
  %148 = sext i8 %147 to i32
  %149 = icmp sle i32 %148, 122
  br i1 %149, label %171, label %150

150:                                              ; preds = %143, %136
  %151 = load i32, i32* %7, align 4
  %152 = sext i32 %151 to i64
  %153 = getelementptr inbounds [90 x i8], [90 x i8]* %8, i64 0, i64 %152
  %154 = load i8, i8* %153, align 1
  %155 = sext i8 %154 to i32
  %156 = icmp sge i32 %155, 65
  br i1 %156, label %157, label %164

157:                                              ; preds = %150
  %158 = load i32, i32* %7, align 4
  %159 = sext i32 %158 to i64
  %160 = getelementptr inbounds [90 x i8], [90 x i8]* %8, i64 0, i64 %159
  %161 = load i8, i8* %160, align 1
  %162 = sext i8 %161 to i32
  %163 = icmp sle i32 %162, 90
  br i1 %163, label %171, label %164

164:                                              ; preds = %157, %150
  %165 = load i32, i32* %7, align 4
  %166 = sext i32 %165 to i64
  %167 = getelementptr inbounds [90 x i8], [90 x i8]* %8, i64 0, i64 %166
  %168 = load i8, i8* %167, align 1
  %169 = sext i8 %168 to i32
  %170 = icmp eq i32 %169, 95
  br i1 %170, label %171, label %172

171:                                              ; preds = %164, %157, %143, %129
  br label %182

172:                                              ; preds = %164
  %173 = load i32, i32* %7, align 4
  %174 = sext i32 %173 to i64
  %175 = getelementptr inbounds [90 x i8], [90 x i8]* %8, i64 0, i64 %174
  %176 = load i8, i8* %175, align 1
  %177 = sext i8 %176 to i32
  %178 = icmp eq i32 %177, 0
  br i1 %178, label %179, label %180

179:                                              ; preds = %172
  br label %186

180:                                              ; preds = %172
  %181 = call i32 (i8*, ...) @printf(i8* getelementptr inbounds ([3 x i8], [3 x i8]* @.str.1, i64 0, i64 0))
  store i32 1, i32* %5, align 4
  br label %186

182:                                              ; preds = %171
  br label %183

183:                                              ; preds = %182
  %184 = load i32, i32* %7, align 4
  %185 = add nsw i32 %184, 1
  store i32 %185, i32* %7, align 4
  br label %119

186:                                              ; preds = %180, %179, %119
  %187 = load i32, i32* %5, align 4
  %188 = icmp eq i32 %187, 0
  br i1 %188, label %189, label %191

189:                                              ; preds = %186
  %190 = call i32 (i8*, ...) @printf(i8* getelementptr inbounds ([3 x i8], [3 x i8]* @.str.2, i64 0, i64 0))
  br label %191

191:                                              ; preds = %189, %186
  br label %194

192:                                              ; preds = %113, %108
  %193 = call i32 (i8*, ...) @printf(i8* getelementptr inbounds ([3 x i8], [3 x i8]* @.str.1, i64 0, i64 0))
  br label %194

194:                                              ; preds = %192, %191
  br label %195

195:                                              ; preds = %194, %97
  br label %196

196:                                              ; preds = %195
  %197 = load i32, i32* %6, align 4
  %198 = add nsw i32 %197, 1
  store i32 %198, i32* %6, align 4
  br label %13

199:                                              ; preds = %13
  %200 = call i32 @getchar()
  %201 = call i32 @getchar()
  %202 = call i32 @getchar()
  %203 = load i32, i32* %1, align 4
  ret i32 %203
}

declare dso_local i32 @__isoc99_scanf(i8*, ...) #1

declare dso_local i32 @gets(...) #1

declare dso_local i32 @printf(i8*, ...) #1

declare dso_local i32 @getchar() #1


!llvm.module.flags = !{!0}
!llvm.ident = !{!1}

!0 = !{i32 1, !"wchar_size", i32 4}
!1 = !{!"clang version 10.0.0-4ubuntu1 "}
